; Function Attrs: mustprogress nofree norecurse nosync nounwind willreturn memory(readwrite, inaccessiblemem: none) uwtable
define internal noundef i32 @mpeg4_update_thread_context_for_user(ptr noundef readonly captures(none) %0, ptr noundef readonly captures(none) %1) #7 {
  %3 = getelementptr inbounds nuw i8, ptr %0, i64 32
  %4 = load ptr, ptr %3, align 8, !tbaa !150
  %5 = getelementptr inbounds nuw i8, ptr %1, i64 32
  %6 = load ptr, ptr %5, align 8, !tbaa !150
  %7 = getelementptr inbounds nuw i8, ptr %6, i64 4092
  %8 = load i32, ptr %7, align 4, !tbaa !186
  %9 = getelementptr inbounds nuw i8, ptr %4, i64 4092
  store i32 %8, ptr %9, align 4, !tbaa !186
  %10 = getelementptr inbounds nuw i8, ptr %6, i64 4116
  %11 = load i32, ptr %10, align 4, !tbaa !159
  %12 = getelementptr inbounds nuw i8, ptr %4, i64 4116
  store i32 %11, ptr %12, align 4, !tbaa !159
  ret i32 0
}